target datalayout = "e-m:e-p270:32:32-p271:32:32-p272:64:64-i64:64-i128:128-f80:128-n8:16:32:64-S128"
target triple = "x86_64-pc-linux-gnu"

@display_internal_per_fields = internal global i8 0, align 1
@per_oid_dissector_table = internal global ptr null, align 8
@.str.45 = private unnamed_addr constant [8 x i8] c"per.oid\00", align 1
@proto_register_per.ett = internal global [6 x ptr] [ptr @ett_per_open_type, ptr @ett_per_containing, ptr @ett_per_sequence_of_item, ptr @ett_per_External, ptr @ett_per_External_encoding, ptr @ett_per_named_bits], align 16
@.str.159 = private unnamed_addr constant [36 x i8] c"Packed Encoding Rules (ASN.1 X.691)\00", align 1
@.str.160 = private unnamed_addr constant [4 x i8] c"PER\00", align 1
@.str.161 = private unnamed_addr constant [4 x i8] c"per\00", align 1
@proto_per = internal global i32 0, align 4
@.str.162 = private unnamed_addr constant [28 x i8] c"display_internal_per_fields\00", align 1
@.str.163 = private unnamed_addr constant [44 x i8] c"Display the internal PER fields in the tree\00", align 1
@.str.164 = private unnamed_addr constant [91 x i8] c"Whether the dissector should put the internal PER data in the tree or if it should hide it\00", align 1
@.str.165 = private unnamed_addr constant [8 x i8] c"PER OID\00", align 1

; Function Attrs: null_pointer_is_valid sspstrong uwtable
define hidden void @proto_register_per() #0 {
  %1 = alloca ptr, align 8
  %2 = alloca ptr, align 8
  call void @llvm.lifetime.start.p0(i64 8, ptr %1) #11
  call void @llvm.lifetime.start.p0(i64 8, ptr %2) #11
  %3 = call i32 @proto_register_protocol(ptr noundef @.str.159, ptr noundef @.str.160, ptr noundef @.str.161)
  store i32 %3, ptr @proto_per, align 4
  %4 = load i32, ptr @proto_per, align 4
  call void @proto_register_field_array(i32 noundef %4, ptr noundef @proto_register_per.hf, i32 noundef 33)
  call void @proto_register_subtree_array(ptr noundef @proto_register_per.ett, i32 noundef 6)
  %5 = load i32, ptr @proto_per, align 4
  %6 = call ptr @expert_register_protocol(i32 noundef %5)
  store ptr %6, ptr %2, align 8
  %7 = load ptr, ptr %2, align 8
  call void @expert_register_field_array(ptr noundef %7, ptr noundef @proto_register_per.ei, i32 noundef 12)
  %8 = load i32, ptr @proto_per, align 4
  call void @proto_set_cant_toggle(i32 noundef %8)
  %9 = load i32, ptr @proto_per, align 4
  %10 = call ptr @prefs_register_protocol(i32 noundef %9, ptr noundef null)
  store ptr %10, ptr %1, align 8
  %11 = load ptr, ptr %1, align 8
  call void @prefs_register_bool_preference(ptr noundef %11, ptr noundef @.str.162, ptr noundef @.str.163, ptr noundef @.str.164, ptr noundef @display_internal_per_fields)
  %12 = load i32, ptr @proto_per, align 4
  %13 = call ptr @register_dissector_table(ptr noundef @.str.45, ptr noundef @.str.165, i32 noundef %12, i32 noundef 26, i32 noundef 0)
  store ptr %13, ptr @per_oid_dissector_table, align 8
  call void @llvm.lifetime.end.p0(i64 8, ptr %2) #11
  call void @llvm.lifetime.end.p0(i64 8, ptr %1) #11
  ret void
}