; Function Attrs: null_pointer_is_valid sspstrong uwtable
define hidden void @proto_register_per() local_unnamed_addr #0 {
  %1 = tail call i32 @proto_register_protocol(ptr noundef nonnull @.str.159, ptr noundef nonnull @.str.160, ptr noundef nonnull @.str.161)
  store i32 %1, ptr @proto_per, align 4
  tail call void @proto_register_field_array(i32 noundef %1, ptr noundef nonnull @proto_register_per.hf, i32 noundef 33)
  tail call void @proto_register_subtree_array(ptr noundef nonnull @proto_register_per.ett, i32 noundef 6)
  %2 = load i32, ptr @proto_per, align 4
  %3 = tail call ptr @expert_register_protocol(i32 noundef %2)
  tail call void @expert_register_field_array(ptr noundef %3, ptr noundef nonnull @proto_register_per.ei, i32 noundef 12)
  %4 = load i32, ptr @proto_per, align 4
  tail call void @proto_set_cant_toggle(i32 noundef %4)
  %5 = load i32, ptr @proto_per, align 4
  %6 = tail call ptr @prefs_register_protocol(i32 noundef %5, ptr noundef null)
  tail call void @prefs_register_bool_preference(ptr noundef %6, ptr noundef nonnull @.str.162, ptr noundef nonnull @.str.163, ptr noundef nonnull @.str.164, ptr noundef nonnull @display_internal_per_fields)
  %7 = load i32, ptr @proto_per, align 4
  %8 = tail call ptr @register_dissector_table(ptr noundef nonnull @.str.45, ptr noundef nonnull @.str.165, i32 noundef %7, i32 noundef 26, i32 noundef 0)
  store ptr %8, ptr @per_oid_dissector_table, align 8
  ret void
}